target datalayout = "e-m:e-p270:32:32-p271:32:32-p272:64:64-i64:64-i128:128-f80:128-n8:16:32:64-S128"
target triple = "x86_64-pc-linux-gnu"

%struct.AVFormatContext = type { ptr, ptr, ptr, ptr, ptr, i32, i32, ptr, i32, ptr, i32, ptr, ptr, i64, i64, i64, i32, i32, i32, i64, i64, ptr, i32, i32, ptr, i32, i32, i32, i32, ptr, i64, i32, i32, %struct.AVIOInterruptCB, i32, i32, i32, i32, i64, i32, i32, i32, i32, i32, i32, i32, i32, i32, i32, i32, i32, i64, i32, i32, i32, i32, i32, ptr, ptr, ptr, ptr, i32, ptr, ptr, ptr, ptr, i32, ptr, ptr, i64, ptr, ptr, ptr, i64 }
%struct.AVIOInterruptCB = type { ptr, ptr }
%struct.AVStream = type { ptr, i32, i32, ptr, ptr, %struct.AVRational, i64, i64, i64, i32, i32, %struct.AVRational, ptr, %struct.AVRational, %struct.AVPacket, i32, %struct.AVRational, i32 }
%struct.AVPacket = type { ptr, i64, i64, ptr, i32, i32, i32, ptr, i32, i64, i64, ptr, ptr, %struct.AVRational }
%struct.AVRational = type { i32, i32 }
%struct.AVCodecParameters = type { i32, i32, i32, ptr, i32, ptr, i32, i32, i64, i32, i32, i32, i32, i32, i32, %struct.AVRational, %struct.AVRational, i32, i32, i32, i32, i32, i32, i32, %struct.AVChannelLayout, i32, i32, i32, i32, i32, i32 }
%struct.AVChannelLayout = type { i32, i32, %union.anon, ptr }
%union.anon = type { i64 }

; Function Attrs: nounwind uwtable
define internal i32 @binka_read_header(ptr noundef %0) #0 {
  %2 = alloca i32, align 4
  %3 = alloca ptr, align 8
  %4 = alloca ptr, align 8
  %5 = alloca ptr, align 8
  %6 = alloca i32, align 4
  %7 = alloca i32, align 4
  %8 = alloca i32, align 4
  store ptr %0, ptr %3, align 8, !tbaa !14
  call void @llvm.lifetime.start.p0(i64 8, ptr %4) #6
  %9 = load ptr, ptr %3, align 8, !tbaa !14
  %10 = getelementptr inbounds nuw %struct.AVFormatContext, ptr %9, i32 0, i32 4
  %11 = load ptr, ptr %10, align 8, !tbaa !16
  store ptr %11, ptr %4, align 8, !tbaa !31
  call void @llvm.lifetime.start.p0(i64 8, ptr %5) #6
  call void @llvm.lifetime.start.p0(i64 4, ptr %6) #6
  call void @llvm.lifetime.start.p0(i64 4, ptr %7) #6
  %12 = load ptr, ptr %3, align 8, !tbaa !14
  %13 = call ptr @avformat_new_stream(ptr noundef %12, ptr noundef null)
  store ptr %13, ptr %5, align 8, !tbaa !32
  %14 = load ptr, ptr %5, align 8, !tbaa !32
  %15 = icmp ne ptr %14, null
  br i1 %15, label %17, label %16

16:                                               ; preds = %1
  store i32 -12, ptr %2, align 4
  store i32 1, ptr %8, align 4
  br label %63

17:                                               ; preds = %1
  %18 = load ptr, ptr %4, align 8, !tbaa !31
  %19 = call i64 @avio_skip(ptr noundef %18, i64 noundef 5)
  %20 = load ptr, ptr %5, align 8, !tbaa !32
  %21 = getelementptr inbounds nuw %struct.AVStream, ptr %20, i32 0, i32 3
  %22 = load ptr, ptr %21, align 8, !tbaa !34
  %23 = getelementptr inbounds nuw %struct.AVCodecParameters, ptr %22, i32 0, i32 0
  store i32 1, ptr %23, align 8, !tbaa !41
  %24 = load ptr, ptr %5, align 8, !tbaa !32
  %25 = getelementptr inbounds nuw %struct.AVStream, ptr %24, i32 0, i32 3
  %26 = load ptr, ptr %25, align 8, !tbaa !34
  %27 = getelementptr inbounds nuw %struct.AVCodecParameters, ptr %26, i32 0, i32 1
  store i32 86064, ptr %27, align 4, !tbaa !44
  %28 = load ptr, ptr %4, align 8, !tbaa !31
  %29 = call i32 @avio_r8(ptr noundef %28)
  %30 = load ptr, ptr %5, align 8, !tbaa !32
  %31 = getelementptr inbounds nuw %struct.AVStream, ptr %30, i32 0, i32 3
  %32 = load ptr, ptr %31, align 8, !tbaa !34
  %33 = getelementptr inbounds nuw %struct.AVCodecParameters, ptr %32, i32 0, i32 24
  %34 = getelementptr inbounds nuw %struct.AVChannelLayout, ptr %33, i32 0, i32 1
  store i32 %29, ptr %34, align 4, !tbaa !45
  %35 = load ptr, ptr %4, align 8, !tbaa !31
  %36 = call i32 @avio_rl16(ptr noundef %35)
  %37 = load ptr, ptr %5, align 8, !tbaa !32
  %38 = getelementptr inbounds nuw %struct.AVStream, ptr %37, i32 0, i32 3
  %39 = load ptr, ptr %38, align 8, !tbaa !34
  %40 = getelementptr inbounds nuw %struct.AVCodecParameters, ptr %39, i32 0, i32 25
  store i32 %36, ptr %40, align 8, !tbaa !46
  %41 = load ptr, ptr %4, align 8, !tbaa !31
  %42 = call i32 @avio_rl32(ptr noundef %41)
  %43 = zext i32 %42 to i64
  %44 = load ptr, ptr %5, align 8, !tbaa !32
  %45 = getelementptr inbounds nuw %struct.AVStream, ptr %44, i32 0, i32 7
  store i64 %43, ptr %45, align 8, !tbaa !47
  %46 = load ptr, ptr %4, align 8, !tbaa !31
  %47 = call i64 @avio_skip(ptr noundef %46, i64 noundef 8)
  %48 = load ptr, ptr %4, align 8, !tbaa !31
  %49 = call i32 @avio_rl16(ptr noundef %48)
  store i32 %49, ptr %6, align 4, !tbaa !48
  %50 = load i32, ptr %6, align 4, !tbaa !48
  %51 = mul nsw i32 %50, 2
  %52 = add nsw i32 %51, 2
  store i32 %52, ptr %7, align 4, !tbaa !48
  %53 = load ptr, ptr %4, align 8, !tbaa !31
  %54 = load i32, ptr %7, align 4, !tbaa !48
  %55 = sext i32 %54 to i64
  %56 = call i64 @avio_skip(ptr noundef %53, i64 noundef %55)
  %57 = load ptr, ptr %5, align 8, !tbaa !32
  %58 = load ptr, ptr %5, align 8, !tbaa !32
  %59 = getelementptr inbounds nuw %struct.AVStream, ptr %58, i32 0, i32 3
  %60 = load ptr, ptr %59, align 8, !tbaa !34
  %61 = getelementptr inbounds nuw %struct.AVCodecParameters, ptr %60, i32 0, i32 25
  %62 = load i32, ptr %61, align 8, !tbaa !46
  call void @avpriv_set_pts_info(ptr noundef %57, i32 noundef 64, i32 noundef 1, i32 noundef %62)
  store i32 0, ptr %2, align 4
  store i32 1, ptr %8, align 4
  br label %63

63:                                               ; preds = %17, %16
  call void @llvm.lifetime.end.p0(i64 4, ptr %7) #6
  call void @llvm.lifetime.end.p0(i64 4, ptr %6) #6
  call void @llvm.lifetime.end.p0(i64 8, ptr %5) #6
  call void @llvm.lifetime.end.p0(i64 8, ptr %4) #6
  %64 = load i32, ptr %2, align 4
  ret i32 %64
}