; Function Attrs: nounwind uwtable
define internal range(i32 -12, 1) i32 @binka_read_header(ptr noundef %0) #1 {
  %2 = getelementptr inbounds nuw i8, ptr %0, i64 32
  %3 = load ptr, ptr %2, align 8, !tbaa !12
  %4 = tail call ptr @avformat_new_stream(ptr noundef %0, ptr noundef null) #3
  %.not = icmp eq ptr %4, null
  br i1 %.not, label %28, label %5

5:                                                ; preds = %1
  %6 = tail call i64 @avio_skip(ptr noundef %3, i64 noundef 5) #3
  %7 = getelementptr inbounds nuw i8, ptr %4, i64 16
  %8 = load ptr, ptr %7, align 8, !tbaa !27
  store i32 1, ptr %8, align 8, !tbaa !34
  %9 = getelementptr inbounds nuw i8, ptr %8, i64 4
  store i32 86064, ptr %9, align 4, !tbaa !37
  %10 = tail call i32 @avio_r8(ptr noundef %3) #3
  %11 = load ptr, ptr %7, align 8, !tbaa !27
  %12 = getelementptr inbounds nuw i8, ptr %11, i64 132
  store i32 %10, ptr %12, align 4, !tbaa !38
  %13 = tail call i32 @avio_rl16(ptr noundef %3) #3
  %14 = load ptr, ptr %7, align 8, !tbaa !27
  %15 = getelementptr inbounds nuw i8, ptr %14, i64 152
  store i32 %13, ptr %15, align 8, !tbaa !39
  %16 = tail call i32 @avio_rl32(ptr noundef %3) #3
  %17 = zext i32 %16 to i64
  %18 = getelementptr inbounds nuw i8, ptr %4, i64 48
  store i64 %17, ptr %18, align 8, !tbaa !40
  %19 = tail call i64 @avio_skip(ptr noundef %3, i64 noundef 8) #3
  %20 = tail call i32 @avio_rl16(ptr noundef %3) #3
  %21 = shl nsw i32 %20, 1
  %22 = add nsw i32 %21, 2
  %23 = sext i32 %22 to i64
  %24 = tail call i64 @avio_skip(ptr noundef %3, i64 noundef %23) #3
  %25 = load ptr, ptr %7, align 8, !tbaa !27
  %26 = getelementptr inbounds nuw i8, ptr %25, i64 152
  %27 = load i32, ptr %26, align 8, !tbaa !39
  tail call void @avpriv_set_pts_info(ptr noundef nonnull %4, i32 noundef 64, i32 noundef 1, i32 noundef %27) #3
  br label %28

28:                                               ; preds = %1, %5
  %.0 = phi i32 [ 0, %5 ], [ -12, %1 ]
  ret i32 %.0
}